; Function Attrs: mustprogress nounwind uwtable
define internal fastcc noundef ptr @_ZN4llvm12DenseMapBaseINS_8DenseMapIN12_GLOBAL__N_111ModelledPHIENS_6detail13DenseSetEmptyENS2_12DenseMapInfoIS3_EENS4_12DenseSetPairIS3_EEEES3_S5_S7_S9_E6doFindIS3_EEPS9_RKT_(ptr %.0.val, i32 %.16.val, ptr noundef nonnull align 8 dereferenceable(96) %0) unnamed_addr #0 align 2 {
  %2 = alloca %"class.(anonymous namespace)::ModelledPHI", align 8
  %3 = icmp eq i32 %.16.val, 0
  br i1 %3, label %_ZN12_GLOBAL__N_111ModelledPHID2Ev.exit, label %4

4:                                                ; preds = %1
  call fastcc void @_ZN4llvm12DenseMapBaseINS_8DenseMapIN12_GLOBAL__N_111ModelledPHIENS_6detail13DenseSetEmptyENS2_12DenseMapInfoIS3_EENS4_12DenseSetPairIS3_EEEES3_S5_S7_S9_E11getEmptyKeyEv(ptr dead_on_unwind noalias nonnull writable align 8 %2)
  %5 = load ptr, ptr %0, align 8
  %6 = call noundef i64 @_ZNK4llvm15SmallVectorBaseIjE4sizeEv(ptr noundef nonnull align 8 dereferenceable(16) %0) #19
  %7 = getelementptr inbounds ptr, ptr %5, i64 %6
  %8 = call i64 @_ZN4llvm7hashing6detail23hash_combine_range_implIKPNS_5ValueEEENSt9enable_ifIXsr16is_hashable_dataIT_EE5valueENS_9hash_codeEE4typeEPS7_SB_(ptr noundef %5, ptr noundef %7)
  %9 = trunc i64 %8 to i32
  %10 = add i32 %.16.val, -1
  %.0151 = and i32 %10, %9
  %11 = zext i32 %.0151 to i64
  %12 = getelementptr inbounds %"class.llvm::detail::DenseSetPair.146", ptr %.0.val, i64 %11
  %13 = call fastcc noundef zeroext i1 @_ZN12_GLOBAL__N_112DenseMapInfoINS_11ModelledPHIEE7isEqualERKS1_S4_(ptr noundef nonnull align 8 dereferenceable(96) %0, ptr noundef nonnull align 8 dereferenceable(96) %12)
  br i1 %13, label %._crit_edge, label %.lr.ph

.lr.ph:                                           ; preds = %4, %16
  %14 = phi ptr [ %20, %16 ], [ %12, %4 ]
  %.0153 = phi i32 [ %.015, %16 ], [ %.0151, %4 ]
  %.0142 = phi i32 [ %17, %16 ], [ 1, %4 ]
  %15 = call fastcc noundef zeroext i1 @_ZN12_GLOBAL__N_112DenseMapInfoINS_11ModelledPHIEE7isEqualERKS1_S4_(ptr noundef nonnull align 8 dereferenceable(96) %14, ptr noundef nonnull align 8 dereferenceable(96) %2)
  br i1 %15, label %._crit_edge, label %16

16:                                               ; preds = %.lr.ph
  %17 = add i32 %.0142, 1
  %18 = add i32 %.0153, %.0142
  %.015 = and i32 %18, %10
  %19 = zext i32 %.015 to i64
  %20 = getelementptr inbounds %"class.llvm::detail::DenseSetPair.146", ptr %.0.val, i64 %19
  %21 = call fastcc noundef zeroext i1 @_ZN12_GLOBAL__N_112DenseMapInfoINS_11ModelledPHIEE7isEqualERKS1_S4_(ptr noundef nonnull align 8 dereferenceable(96) %0, ptr noundef nonnull align 8 dereferenceable(96) %20)
  br i1 %21, label %._crit_edge, label %.lr.ph, !llvm.loop !227

._crit_edge:                                      ; preds = %16, %.lr.ph, %4
  %.1 = phi ptr [ %12, %4 ], [ null, %.lr.ph ], [ %20, %16 ]
  %22 = getelementptr inbounds nuw i8, ptr %2, i64 48
  %23 = call noundef i64 @_ZNK4llvm15SmallVectorBaseIjE4sizeEv(ptr noundef nonnull align 8 dereferenceable(16) %22) #19
  %24 = load ptr, ptr %22, align 8
  %25 = getelementptr inbounds i8, ptr %2, i64 64
  %26 = icmp eq ptr %24, %25
  br i1 %26, label %_ZN4llvm11SmallVectorIPNS_10BasicBlockELj4EED2Ev.exit.i, label %27

27:                                               ; preds = %._crit_edge
  call void @free(ptr noundef %24) #19
  br label %_ZN4llvm11SmallVectorIPNS_10BasicBlockELj4EED2Ev.exit.i

_ZN4llvm11SmallVectorIPNS_10BasicBlockELj4EED2Ev.exit.i: ; preds = %27, %._crit_edge
  %28 = call noundef i64 @_ZNK4llvm15SmallVectorBaseIjE4sizeEv(ptr noundef nonnull align 8 dereferenceable(16) %2) #19
  %29 = load ptr, ptr %2, align 8
  %30 = getelementptr inbounds i8, ptr %2, i64 16
  %31 = icmp eq ptr %29, %30
  br i1 %31, label %_ZN12_GLOBAL__N_111ModelledPHID2Ev.exit, label %32

32:                                               ; preds = %_ZN4llvm11SmallVectorIPNS_10BasicBlockELj4EED2Ev.exit.i
  call void @free(ptr noundef %29) #19
  br label %_ZN12_GLOBAL__N_111ModelledPHID2Ev.exit

_ZN12_GLOBAL__N_111ModelledPHID2Ev.exit:          ; preds = %32, %_ZN4llvm11SmallVectorIPNS_10BasicBlockELj4EED2Ev.exit.i, %1
  %.0 = phi ptr [ null, %1 ], [ %.1, %_ZN4llvm11SmallVectorIPNS_10BasicBlockELj4EED2Ev.exit.i ], [ %.1, %32 ]
  ret ptr %.0
}